; Function Attrs: mustprogress uwtable
define void @WasmEdge_ExecutorExperimentalRegisterPostHostFunction(ptr noundef %0, ptr noundef %1, ptr noundef %2) local_unnamed_addr #1 personality ptr @__gxx_personality_v0 {
  %4 = alloca %"class.std::function", align 8
  %5 = alloca %"class.cxx20::expected.737", align 4
  %.not = icmp eq ptr %0, null
  br i1 %.not, label %_ZNSt8functionIFvPvEED2Ev.exit, label %6

6:                                                ; preds = %3
  call void @llvm.memset.p0.i64(ptr noundef nonnull align 8 dereferenceable(32) %4, i8 0, i64 32, i1 false)
  %.not.i = icmp eq ptr %2, null
  br i1 %.not.i, label %_ZNSt8functionIFvPvEEC2IRPS1_vEEOT_.exit, label %7

7:                                                ; preds = %6
  %8 = getelementptr inbounds i8, ptr %4, i64 24
  %9 = getelementptr inbounds i8, ptr %4, i64 16
  store ptr %2, ptr %4, align 8
  store ptr @_ZNSt17_Function_handlerIFvPvEPS1_E9_M_invokeERKSt9_Any_dataOS0_, ptr %8, align 8
  store ptr @_ZNSt17_Function_handlerIFvPvEPS1_E10_M_managerERSt9_Any_dataRKS4_St18_Manager_operation, ptr %9, align 8
  br label %_ZNSt8functionIFvPvEEC2IRPS1_vEEOT_.exit

_ZNSt8functionIFvPvEEC2IRPS1_vEEOT_.exit:         ; preds = %6, %7
  invoke void @_ZN8WasmEdge8Executor8Executor24registerPostHostFunctionEPvSt8functionIFvS2_EE(ptr dead_on_unwind nonnull writable sret(%"class.cxx20::expected.737") align 4 %5, ptr noundef nonnull align 8 dereferenceable(408) %0, ptr noundef %1, ptr noundef nonnull %4)
          to label %10 unwind label %18

10:                                               ; preds = %_ZNSt8functionIFvPvEEC2IRPS1_vEEOT_.exit
  %11 = getelementptr inbounds i8, ptr %4, i64 16
  %12 = load ptr, ptr %11, align 8
  %.not.i.i = icmp eq ptr %12, null
  br i1 %.not.i.i, label %_ZNSt8functionIFvPvEED2Ev.exit, label %13

13:                                               ; preds = %10
  %14 = invoke noundef zeroext i1 %12(ptr noundef nonnull align 8 dereferenceable(16) %4, ptr noundef nonnull align 8 dereferenceable(16) %4, i32 noundef 3)
          to label %_ZNSt8functionIFvPvEED2Ev.exit unwind label %15

15:                                               ; preds = %13
  %16 = landingpad { ptr, i32 }
          catch ptr null
  %17 = extractvalue { ptr, i32 } %16, 0
  call void @__clang_call_terminate(ptr %17) #39
  unreachable

_ZNSt8functionIFvPvEED2Ev.exit:                   ; preds = %13, %10, %3
  ret void

18:                                               ; preds = %_ZNSt8functionIFvPvEEC2IRPS1_vEEOT_.exit
  %19 = landingpad { ptr, i32 }
          cleanup
  %20 = getelementptr inbounds i8, ptr %4, i64 16
  %21 = load ptr, ptr %20, align 8
  %.not.i.i4 = icmp eq ptr %21, null
  br i1 %.not.i.i4, label %_ZNSt8functionIFvPvEED2Ev.exit5, label %22

22:                                               ; preds = %18
  %23 = invoke noundef zeroext i1 %21(ptr noundef nonnull align 8 dereferenceable(16) %4, ptr noundef nonnull align 8 dereferenceable(16) %4, i32 noundef 3)
          to label %_ZNSt8functionIFvPvEED2Ev.exit5 unwind label %24

24:                                               ; preds = %22
  %25 = landingpad { ptr, i32 }
          catch ptr null
  %26 = extractvalue { ptr, i32 } %25, 0
  call void @__clang_call_terminate(ptr %26) #39
  unreachable

_ZNSt8functionIFvPvEED2Ev.exit5:                  ; preds = %18, %22
  resume { ptr, i32 } %19
}